@smo:100,101,110,120

_ZN16GameDataFunction10killPlayerE20GameDataHolderWriter
_ZN16GameDataFunction18tryChangeNextStageE20GameDataHolderWriterPK15ChangeStageInfo
_ZN16GameDataFunction12damagePlayerE20GameDataHolderWriter
_ZN16GameDataFunction10isGotShineE22GameDataHolderAccessorPK9ShineInfo
_ZN16GameDataFunction11setGotShineE20GameDataHolderWriterPK9ShineInfo
_ZN16GameDataFunction11isGameClearE22GameDataHolderAccessor
_ZN16GameDataFunction34isAlreadyShowExplainCheckpointFlagE22GameDataHolderAccessor
_ZN16GameDataFunction16getLifeMaxUpItemEPKN2al9LiveActorE
_ZN16GameDataFunction14recoveryPlayerEPKN2al9LiveActorE
_ZN16GameDataFunction21disableCapByPlacementEPKN2al9LiveActorE
_ZN16GameDataFunction7addCoinE20GameDataHolderWriteri
_ZN16GameDataFunction10getCoinNumE22GameDataHolderAccessor
_ZN16GameDataFunction16isGotCoinCollectE22GameDataHolderAccessorRKN2al13ActorInitInfoE
_ZN16GameDataFunction16getPlayTimeTotalE22GameDataHolderAccessor
_ZN16GameDataFunction21getPlayTimeAcrossFileE22GameDataHolderAccessor
_ZN16GameDataFunction19getCurrentStageNameE22GameDataHolderAccessor
_ZN16GameDataFunction22isGotCheckpointInWorldE22GameDataHolderAccessori
_ZN16GameDataFunction26getCheckpointNumMaxInWorldE22GameDataHolderAccessor
_ZN16GameDataFunction25getCheckpointTransInWorldE22GameDataHolderAccessori

@smo:130

_ZN16GameDataFunction16getLifeMaxUpItemEPKN2al9LiveActorE = 0x004d38a0
_ZN16GameDataFunction14recoveryPlayerEPKN2al9LiveActorE = 0x004d3990
_ZN16GameDataFunction7addCoinE20GameDataHolderWriteri = 0x004d4ee0
_ZN16GameDataFunction10getCoinNumE22GameDataHolderAccessor = 0x004d4f50
_ZN16GameDataFunction16getPlayTimeTotalE22GameDataHolderAccessor = 0x004d2c10
_ZN16GameDataFunction10killPlayerE20GameDataHolderWriter = 0x004d3a90
_ZN16GameDataFunction11isGameClearE22GameDataHolderAccessor = 0x004d2be0
_ZN16GameDataFunction21getPlayTimeAcrossFileE22GameDataHolderAccessor = 0x004d2c20
_ZN16GameDataFunction11setGotShineE20GameDataHolderWriterPK9ShineInfo = 0x004d3c10
_ZN16GameDataFunction10isGotShineE22GameDataHolderAccessorPK9ShineInfo = 0x004d3ae0
_ZN16GameDataFunction18tryChangeNextStageE20GameDataHolderWriterPK15ChangeStageInfo = 0x004d2c50
_ZN16GameDataFunction16isGotCoinCollectE22GameDataHolderAccessorRKN2al13ActorInitInfoE = 0x004d4da0
_ZN16GameDataFunction25getCheckpointTransInWorldE22GameDataHolderAccessori = 0x004d4ff0
_ZN16GameDataFunction19getCurrentStageNameE22GameDataHolderAccessor = 0x00520190
_ZN16GameDataFunction26getCheckpointNumMaxInWorldE22GameDataHolderAccessor = 0x004d4fe0
_ZN16GameDataFunction22isGotCheckpointInWorldE22GameDataHolderAccessori = 0x004d5030
_ZN16GameDataFunction34isAlreadyShowExplainCheckpointFlagE22GameDataHolderAccessor = 0x004d3880
_ZN16GameDataFunction12damagePlayerE20GameDataHolderWriter = 0x004d3a70
_ZN16GameDataFunction21disableCapByPlacementEPKN2al9LiveActorE = 0x004d80f0