@smo:100,101,110,120

_ZN2al11LayoutActorC1EPKc
_ZN2al11LayoutActorC2EPKc
_ZTIN2al11LayoutActorE
_ZN2al11LayoutActor9initNerveEPKNS_5NerveEi
_ZN2al11LayoutActor6appearEv
_ZN2al11LayoutActor4killEv
_ZN2al11LayoutActor8movementEv
_ZN2al11LayoutActor8calcAnimEb
_ZNK2al11LayoutActor17getCameraDirectorEv
_ZThn32_NK2al11LayoutActor17getCameraDirectorEv
_ZNK2al11LayoutActor17getSceneObjHolderEv
_ZThn56_NK2al11LayoutActor17getSceneObjHolderEv
_ZNK2al11LayoutActor16getMessageSystemEv
_ZThn24_NK2al11LayoutActor16getMessageSystemEv

@smo:130

_ZN2al11LayoutActorC1EPKc = 0x00630330
_ZN2al11LayoutActorC2EPKc = 0x00630130
_ZTIN2al11LayoutActorE = 0x012eccc0
_ZN2al11LayoutActor9initNerveEPKNS_5NerveEi = 0x00630740
_ZN2al11LayoutActor6appearEv = 0x00630490
_ZN2al11LayoutActor4killEv = 0x006304f0
_ZN2al11LayoutActor8movementEv = 0x00630540
_ZN2al11LayoutActor8calcAnimEb = 0x006305d0
_ZNK2al11LayoutActor17getCameraDirectorEv = 0x006307a0
_ZThn32_NK2al11LayoutActor17getCameraDirectorEv = 0x006307b0
_ZNK2al11LayoutActor17getSceneObjHolderEv = 0x006307c0
_ZThn56_NK2al11LayoutActor17getSceneObjHolderEv = 0x006307d0
_ZNK2al11LayoutActor16getMessageSystemEv = 0x006307e0
_ZThn24_NK2al11LayoutActor16getMessageSystemEv = 0x006307f0